Certificate:
    Data:
        Version: 1 (0x0)
        Serial Number: 2 (0x2)
        Signature Algorithm: md5WithRSAEncryption
        Issuer: C=IN, ST=TN, L=CH, O=dtls-example/emailAddress=hi2arun@gmail.com, CN=dtls-server
        Validity
            Not Before: Aug 17 17:46:59 2007 GMT
            Not After : Aug 16 17:46:59 2008 GMT
        Subject: C=IN, ST=TN, O=dtls-example, CN=dtlsclient/emailAddress=hi2arun@gmail.com
        Subject Public Key Info:
            Public Key Algorithm: rsaEncryption
            RSA Public Key: (512 bit)
                Modulus (512 bit):
                    00:9c:42:ea:da:f3:94:80:0a:3c:af:de:db:74:a8:
                    f7:a4:c7:8d:4b:d1:7c:fa:87:e9:8a:7a:72:1e:88:
                    60:25:79:ea:8c:c7:48:8e:93:9b:29:a0:1c:a2:dc:
                    a5:cd:2a:b2:23:de:8e:b2:99:aa:32:ff:72:15:ac:
                    55:1c:f0:e0:71
                Exponent: 65537 (0x10001)
    Signature Algorithm: md5WithRSAEncryption
        70:4c:28:31:fd:fa:ff:1d:0e:5b:c5:71:dd:56:89:71:7a:5a:
        46:77:d2:a1:0c:aa:e3:09:f5:77:a9:e0:c7:78:df:73:23:47:
        5c:46:6a:5d:e7:9e:a1:d9:16:a1:e5:69:c3:2c:c4:35:48:cb:
        80:46:ad:33:25:33:f3:ed:1b:e9
-----BEGIN CERTIFICATE-----
MIIByDCCAXICAQIwDQYJKoZIhvcNAQEEBQAwdjELMAkGA1UEBhMCSU4xCzAJBgNV
BAgTAlROMQswCQYDVQQHEwJDSDEVMBMGA1UEChMMZHRscy1leGFtcGxlMSAwHgYJ
KoZIhvcNAQkBFhFoaTJhcnVuQGdtYWlsLmNvbTEUMBIGA1UEAxMLZHRscy1zZXJ2
ZXIwHhcNMDcwODE3MTc0NjU5WhcNMDgwODE2MTc0NjU5WjBoMQswCQYDVQQGEwJJ
TjELMAkGA1UECBMCVE4xFTATBgNVBAoTDGR0bHMtZXhhbXBsZTETMBEGA1UEAxMK
ZHRsc2NsaWVudDEgMB4GCSqGSIb3DQEJARYRaGkyYXJ1bkBnbWFpbC5jb20wXDAN
BgkqhkiG9w0BAQEFAANLADBIAkEAnELq2vOUgAo8r97bdKj3pMeNS9F8+ofpinpy
HohgJXnqjMdIjpObKaAcotylzSqyI96OspmqMv9yFaxVHPDgcQIDAQABMA0GCSqG
SIb3DQEBBAUAA0EAcEwoMf36/x0OW8Vx3VaJcXpaRnfSoQyq4wn1d6ngx3jfcyNH
XEZqXeeeodkWoeVpwyzENUjLgEatMyUz8+0b6Q==
-----END CERTIFICATE-----
