Certificate:
    Data:
        Version: 1 (0x0)
        Serial Number: 1 (0x1)
        Signature Algorithm: md5WithRSAEncryption
        Issuer: C=IN, ST=TN, L=CH, O=dtls-example/emailAddress=hi2arun@gmail.com, CN=dtls-server
        Validity
            Not Before: Aug 17 17:46:54 2007 GMT
            Not After : Aug 16 17:46:54 2008 GMT
        Subject: C=IN, ST=TN, O=dtls-example, CN=dtlsserver/emailAddress=hi2arun@gmail.com
        Subject Public Key Info:
            Public Key Algorithm: rsaEncryption
            RSA Public Key: (512 bit)
                Modulus (512 bit):
                    00:c3:56:f9:2e:00:65:ba:91:9c:ce:e1:15:e2:d4:
                    f2:57:da:a0:5a:45:ac:03:17:8a:12:ce:34:f8:18:
                    8d:5e:6d:2e:19:17:66:7c:81:07:78:c5:9b:35:ea:
                    69:61:1e:fa:67:df:14:6c:dd:e7:e9:03:2e:30:4d:
                    77:05:77:2e:81
                Exponent: 65537 (0x10001)
    Signature Algorithm: md5WithRSAEncryption
        1e:bd:b5:da:1d:2d:3f:4c:45:0f:4f:bc:1f:e5:05:f4:0c:31:
        3d:8f:a5:60:d1:b9:ee:cc:2e:e3:6f:a6:f4:c4:c5:af:c8:2b:
        e6:4c:08:21:18:91:9e:9d:8a:57:dd:bc:f5:59:9c:47:24:ee:
        75:6a:87:85:db:86:7e:a9:2d:f6
-----BEGIN CERTIFICATE-----
MIIByDCCAXICAQEwDQYJKoZIhvcNAQEEBQAwdjELMAkGA1UEBhMCSU4xCzAJBgNV
BAgTAlROMQswCQYDVQQHEwJDSDEVMBMGA1UEChMMZHRscy1leGFtcGxlMSAwHgYJ
KoZIhvcNAQkBFhFoaTJhcnVuQGdtYWlsLmNvbTEUMBIGA1UEAxMLZHRscy1zZXJ2
ZXIwHhcNMDcwODE3MTc0NjU0WhcNMDgwODE2MTc0NjU0WjBoMQswCQYDVQQGEwJJ
TjELMAkGA1UECBMCVE4xFTATBgNVBAoTDGR0bHMtZXhhbXBsZTETMBEGA1UEAxMK
ZHRsc3NlcnZlcjEgMB4GCSqGSIb3DQEJARYRaGkyYXJ1bkBnbWFpbC5jb20wXDAN
BgkqhkiG9w0BAQEFAANLADBIAkEAw1b5LgBlupGczuEV4tTyV9qgWkWsAxeKEs40
+BiNXm0uGRdmfIEHeMWbNeppYR76Z98UbN3n6QMuME13BXcugQIDAQABMA0GCSqG
SIb3DQEBBAUAA0EAHr212h0tP0xFD0+8H+UF9AwxPY+lYNG57swu42+m9MTFr8gr
5kwIIRiRnp2KV9289VmcRyTudWqHhduGfqkt9g==
-----END CERTIFICATE-----
